; Function Attrs: nounwind uwtable
define dso_local i32 @Curl_conn_recv(ptr noundef %0, i32 noundef %1, ptr noundef %2, i64 noundef %3, ptr noundef writeonly captures(none) initializes((0, 8)) %4) local_unnamed_addr #1 {
  %6 = alloca i32, align 4
  call void @llvm.lifetime.start.p0(i64 4, ptr nonnull %6) #12
  store i32 0, ptr %6, align 4, !tbaa !44
  %7 = getelementptr inbounds nuw i8, ptr %0, i64 24
  %8 = load ptr, ptr %7, align 8, !tbaa !56
  %9 = getelementptr inbounds nuw i8, ptr %8, i64 576
  %10 = sext i32 %1 to i64
  %11 = getelementptr inbounds [2 x ptr], ptr %9, i64 0, i64 %10
  %12 = load ptr, ptr %11, align 8, !tbaa !53
  %13 = call i64 %12(ptr noundef %0, i32 noundef %1, ptr noundef %2, i64 noundef %3, ptr noundef nonnull %6) #12
  %14 = call i64 @llvm.smax.i64(i64 %13, i64 0)
  store i64 %14, ptr %4, align 8, !tbaa !113
  %15 = load i32, ptr %6, align 4, !tbaa !44
  call void @llvm.lifetime.end.p0(i64 4, ptr nonnull %6) #12
  ret i32 %15
}